; Function Attrs: mustprogress uwtable
define void @_ZN7Imf_3_423offsetInLineBufferTableERKSt6vectorImSaImEEiiiRS2_(ptr noundef nonnull readonly align 8 captures(none) dereferenceable(24) %0, i32 noundef %1, i32 noundef %2, i32 noundef %3, ptr noundef nonnull align 8 dereferenceable(24) %4) local_unnamed_addr #5 personality ptr @__gxx_personality_v0 {
  %6 = getelementptr inbounds nuw i8, ptr %0, i64 8
  %7 = load ptr, ptr %6, align 8, !tbaa !10
  %8 = load ptr, ptr %0, align 8, !tbaa !14
  %9 = ptrtoint ptr %7 to i64
  %10 = ptrtoint ptr %8 to i64
  %11 = sub i64 %9, %10
  %12 = ashr exact i64 %11, 3
  %13 = getelementptr inbounds nuw i8, ptr %4, i64 8
  %14 = load ptr, ptr %13, align 8, !tbaa !10
  %15 = load ptr, ptr %4, align 8, !tbaa !14
  %16 = ptrtoint ptr %14 to i64
  %17 = ptrtoint ptr %15 to i64
  %18 = sub i64 %16, %17
  %19 = ashr exact i64 %18, 3
  %20 = icmp ugt i64 %12, %19
  br i1 %20, label %21, label %23

21:                                               ; preds = %5
  %22 = sub nuw nsw i64 %12, %19
  tail call void @_ZNSt6vectorImSaImEE17_M_default_appendEm(ptr noundef nonnull align 8 dereferenceable(24) %4, i64 noundef %22)
  br label %_ZNSt6vectorImSaImEE6resizeEm.exit

23:                                               ; preds = %5
  %24 = icmp ult i64 %12, %19
  br i1 %24, label %25, label %_ZNSt6vectorImSaImEE6resizeEm.exit

25:                                               ; preds = %23
  %26 = getelementptr inbounds nuw i8, ptr %15, i64 %11
  %.not.i.i = icmp eq ptr %14, %26
  br i1 %.not.i.i, label %_ZNSt6vectorImSaImEE6resizeEm.exit, label %27

27:                                               ; preds = %25
  store ptr %26, ptr %13, align 8, !tbaa !10
  br label %_ZNSt6vectorImSaImEE6resizeEm.exit

_ZNSt6vectorImSaImEE6resizeEm.exit:               ; preds = %21, %23, %25, %27
  %.not14 = icmp sgt i32 %1, %2
  br i1 %.not14, label %._crit_edge, label %.lr.ph

.lr.ph:                                           ; preds = %_ZNSt6vectorImSaImEE6resizeEm.exit
  %28 = load ptr, ptr %4, align 8, !tbaa !14
  %29 = load ptr, ptr %0, align 8, !tbaa !14
  %30 = sext i32 %1 to i64
  %31 = add i32 %2, 1
  br label %32

._crit_edge:                                      ; preds = %32, %_ZNSt6vectorImSaImEE6resizeEm.exit
  ret void

32:                                               ; preds = %.lr.ph, %32
  %indvars.iv = phi i64 [ %30, %.lr.ph ], [ %indvars.iv.next, %32 ]
  %.01315 = phi i64 [ 0, %.lr.ph ], [ %39, %32 ]
  %33 = trunc nsw i64 %indvars.iv to i32
  %34 = srem i32 %33, %3
  %35 = icmp eq i32 %34, 0
  %spec.select = select i1 %35, i64 0, i64 %.01315
  %36 = getelementptr inbounds nuw i64, ptr %28, i64 %indvars.iv
  store i64 %spec.select, ptr %36, align 8, !tbaa !23
  %37 = getelementptr inbounds nuw i64, ptr %29, i64 %indvars.iv
  %38 = load i64, ptr %37, align 8, !tbaa !23
  %39 = add i64 %38, %spec.select
  %indvars.iv.next = add nsw i64 %indvars.iv, 1
  %lftr.wideiv = trunc i64 %indvars.iv.next to i32
  %exitcond.not = icmp eq i32 %31, %lftr.wideiv
  br i1 %exitcond.not, label %._crit_edge, label %32, !llvm.loop !34
}